target datalayout = "e-m:e-p270:32:32-p271:32:32-p272:64:64-i64:64-i128:128-f80:128-n8:16:32:64-S128"
target triple = "x86_64-pc-linux-gnu"

%struct.anon = type { i32, [0 x i8] }
%struct.varattrib_1b = type { i8, [0 x i8] }

@.str.1 = private unnamed_addr constant [13 x i8] c"rangetypes.c\00", align 1
@.str.17 = private unnamed_addr constant [29 x i8] c"unsupported byval length: %d\00", align 1
@.str.18 = private unnamed_addr constant [41 x i8] c"../../../../src/include/access/tupmacs.h\00", align 1
@.str.29 = private unnamed_addr constant [44 x i8] c"cannot store a toast pointer inside a range\00", align 1
@__func__.datum_write = private unnamed_addr constant [12 x i8] c"datum_write\00", align 1
@__func__.store_att_byval = private unnamed_addr constant [16 x i8] c"store_att_byval\00", align 1

; Function Attrs: inlinehint nounwind uwtable
define internal i32 @DatumGetInt32(i64 noundef %0) #2 {
  %2 = alloca i64, align 8
  store i64 %0, ptr %2, align 8
  %3 = load i64, ptr %2, align 8
  %4 = trunc i64 %3 to i32
  ret i32 %4
}

; Function Attrs: inlinehint nounwind uwtable
define internal signext i16 @DatumGetInt16(i64 noundef %0) #2 {
  %2 = alloca i64, align 8
  store i64 %0, ptr %2, align 8
  %3 = load i64, ptr %2, align 8
  %4 = trunc i64 %3 to i16
  ret i16 %4
}

; Function Attrs: inlinehint nounwind uwtable
define internal signext i8 @DatumGetChar(i64 noundef %0) #2 {
  %2 = alloca i64, align 8
  store i64 %0, ptr %2, align 8
  %3 = load i64, ptr %2, align 8
  %4 = trunc i64 %3 to i8
  ret i8 %4
}

; Function Attrs: inlinehint nounwind uwtable
define internal ptr @DatumGetCString(i64 noundef %0) #2 {
  %2 = alloca i64, align 8
  store i64 %0, ptr %2, align 8
  %3 = load i64, ptr %2, align 8
  %4 = call ptr @DatumGetPointer(i64 noundef %3)
  ret ptr %4
}

; Function Attrs: inlinehint nounwind uwtable
define internal ptr @DatumGetPointer(i64 noundef %0) #2 {
  %2 = alloca i64, align 8
  store i64 %0, ptr %2, align 8
  %3 = load i64, ptr %2, align 8
  %4 = inttoptr i64 %3 to ptr
  ret ptr %4
}

; Function Attrs: inlinehint nounwind uwtable
define internal void @store_att_byval(ptr noundef %0, i64 noundef %1, i32 noundef %2) #2 {
  %4 = alloca ptr, align 8
  %5 = alloca i64, align 8
  %6 = alloca i32, align 4
  store ptr %0, ptr %4, align 8
  store i64 %1, ptr %5, align 8
  store i32 %2, ptr %6, align 4
  %7 = load i32, ptr %6, align 4
  switch i32 %7, label %23 [
    i32 1, label %8
    i32 2, label %12
    i32 4, label %16
    i32 8, label %20
  ]

8:                                                ; preds = %3
  %9 = load i64, ptr %5, align 8
  %10 = call signext i8 @DatumGetChar(i64 noundef %9)
  %11 = load ptr, ptr %4, align 8
  store i8 %10, ptr %11, align 1
  br label %34

12:                                               ; preds = %3
  %13 = load i64, ptr %5, align 8
  %14 = call signext i16 @DatumGetInt16(i64 noundef %13)
  %15 = load ptr, ptr %4, align 8
  store i16 %14, ptr %15, align 2
  br label %34

16:                                               ; preds = %3
  %17 = load i64, ptr %5, align 8
  %18 = call i32 @DatumGetInt32(i64 noundef %17)
  %19 = load ptr, ptr %4, align 8
  store i32 %18, ptr %19, align 4
  br label %34

20:                                               ; preds = %3
  %21 = load i64, ptr %5, align 8
  %22 = load ptr, ptr %4, align 8
  store i64 %21, ptr %22, align 8
  br label %34

23:                                               ; preds = %3
  br label %24

24:                                               ; preds = %23
  br i1 true, label %25, label %27

25:                                               ; preds = %24
  %26 = call zeroext i1 @errstart_cold(i32 noundef 21, ptr noundef null) #11
  br i1 %26, label %29, label %32

27:                                               ; preds = %24
  %28 = call zeroext i1 @errstart(i32 noundef 21, ptr noundef null)
  br i1 %28, label %29, label %32

29:                                               ; preds = %27, %25
  %30 = load i32, ptr %6, align 4
  %31 = call i32 (ptr, ...) @errmsg_internal(ptr noundef @.str.17, i32 noundef %30)
  call void @errfinish(ptr noundef @.str.18, i32 noundef 230, ptr noundef @__func__.store_att_byval)
  br label %32

32:                                               ; preds = %29, %27, %25
  unreachable

33:                                               ; No predecessors!
  br label %34

34:                                               ; preds = %33, %20, %16, %12, %8
  ret void
}

; Function Attrs: nounwind uwtable
define internal ptr @datum_write(ptr noundef %0, i64 noundef %1, i1 noundef zeroext %2, i8 noundef signext %3, i16 noundef signext %4, i8 noundef signext %5) #0 {
  %7 = alloca ptr, align 8
  %8 = alloca i64, align 8
  %9 = alloca i8, align 1
  %10 = alloca i8, align 1
  %11 = alloca i16, align 2
  %12 = alloca i8, align 1
  %13 = alloca i64, align 8
  %14 = alloca ptr, align 8
  store ptr %0, ptr %7, align 8
  store i64 %1, ptr %8, align 8
  %15 = zext i1 %2 to i8
  store i8 %15, ptr %9, align 1
  store i8 %3, ptr %10, align 1
  store i16 %4, ptr %11, align 2
  store i8 %5, ptr %12, align 1
  call void @llvm.lifetime.start.p0(i64 8, ptr %13) #10
  %16 = load i8, ptr %9, align 1, !range !7, !noundef !8
  %17 = trunc i8 %16 to i1
  br i1 %17, label %18, label %61

18:                                               ; preds = %6
  %19 = load i8, ptr %10, align 1
  %20 = sext i8 %19 to i32
  %21 = icmp eq i32 %20, 105
  br i1 %21, label %22, label %27

22:                                               ; preds = %18
  %23 = load ptr, ptr %7, align 8
  %24 = ptrtoint ptr %23 to i64
  %25 = add i64 %24, 3
  %26 = and i64 %25, -4
  br label %52

27:                                               ; preds = %18
  %28 = load i8, ptr %10, align 1
  %29 = sext i8 %28 to i32
  %30 = icmp eq i32 %29, 99
  br i1 %30, label %31, label %34

31:                                               ; preds = %27
  %32 = load ptr, ptr %7, align 8
  %33 = ptrtoint ptr %32 to i64
  br label %50

34:                                               ; preds = %27
  %35 = load i8, ptr %10, align 1
  %36 = sext i8 %35 to i32
  %37 = icmp eq i32 %36, 100
  br i1 %37, label %38, label %43

38:                                               ; preds = %34
  %39 = load ptr, ptr %7, align 8
  %40 = ptrtoint ptr %39 to i64
  %41 = add i64 %40, 7
  %42 = and i64 %41, -8
  br label %48

43:                                               ; preds = %34
  %44 = load ptr, ptr %7, align 8
  %45 = ptrtoint ptr %44 to i64
  %46 = add i64 %45, 1
  %47 = and i64 %46, -2
  br label %48

48:                                               ; preds = %43, %38
  %49 = phi i64 [ %42, %38 ], [ %47, %43 ]
  br label %50

50:                                               ; preds = %48, %31
  %51 = phi i64 [ %33, %31 ], [ %49, %48 ]
  br label %52

52:                                               ; preds = %50, %22
  %53 = phi i64 [ %26, %22 ], [ %51, %50 ]
  %54 = inttoptr i64 %53 to ptr
  store ptr %54, ptr %7, align 8
  %55 = load ptr, ptr %7, align 8
  %56 = load i64, ptr %8, align 8
  %57 = load i16, ptr %11, align 2
  %58 = sext i16 %57 to i32
  call void @store_att_byval(ptr noundef %55, i64 noundef %56, i32 noundef %58)
  %59 = load i16, ptr %11, align 2
  %60 = sext i16 %59 to i64
  store i64 %60, ptr %13, align 8
  br label %258

61:                                               ; preds = %6
  %62 = load i16, ptr %11, align 2
  %63 = sext i16 %62 to i32
  %64 = icmp eq i32 %63, -1
  br i1 %64, label %65, label %200

65:                                               ; preds = %61
  call void @llvm.lifetime.start.p0(i64 8, ptr %14) #10
  %66 = load i64, ptr %8, align 8
  %67 = call ptr @DatumGetPointer(i64 noundef %66)
  store ptr %67, ptr %14, align 8
  %68 = load ptr, ptr %14, align 8
  %69 = getelementptr inbounds nuw %struct.varattrib_1b, ptr %68, i32 0, i32 0
  %70 = load i8, ptr %69, align 1
  %71 = zext i8 %70 to i32
  %72 = icmp eq i32 %71, 1
  br i1 %72, label %73, label %84

73:                                               ; preds = %65
  br label %74

74:                                               ; preds = %73
  br i1 true, label %75, label %77

75:                                               ; preds = %74
  %76 = call zeroext i1 @errstart_cold(i32 noundef 21, ptr noundef null) #11
  br i1 %76, label %79, label %81

77:                                               ; preds = %74
  %78 = call zeroext i1 @errstart(i32 noundef 21, ptr noundef null)
  br i1 %78, label %79, label %81

79:                                               ; preds = %77, %75
  %80 = call i32 (ptr, ...) @errmsg_internal(ptr noundef @.str.29)
  call void @errfinish(ptr noundef @.str.1, i32 noundef 2732, ptr noundef @__func__.datum_write)
  br label %81

81:                                               ; preds = %79, %77, %75
  unreachable

82:                                               ; No predecessors!
  br label %83

83:                                               ; preds = %82
  store i64 0, ptr %13, align 8
  br label %199

84:                                               ; preds = %65
  %85 = load ptr, ptr %14, align 8
  %86 = getelementptr inbounds nuw %struct.varattrib_1b, ptr %85, i32 0, i32 0
  %87 = load i8, ptr %86, align 1
  %88 = zext i8 %87 to i32
  %89 = and i32 %88, 1
  %90 = icmp eq i32 %89, 1
  br i1 %90, label %91, label %102

91:                                               ; preds = %84
  %92 = load ptr, ptr %14, align 8
  %93 = getelementptr inbounds nuw %struct.varattrib_1b, ptr %92, i32 0, i32 0
  %94 = load i8, ptr %93, align 1
  %95 = zext i8 %94 to i32
  %96 = ashr i32 %95, 1
  %97 = and i32 %96, 127
  %98 = sext i32 %97 to i64
  store i64 %98, ptr %13, align 8
  %99 = load ptr, ptr %7, align 8
  %100 = load ptr, ptr %14, align 8
  %101 = load i64, ptr %13, align 8
  call void @llvm.memcpy.p0.p0.i64(ptr align 1 %99, ptr align 1 %100, i64 %101, i1 false)
  br label %198

102:                                              ; preds = %84
  %103 = load i16, ptr %11, align 2
  %104 = sext i16 %103 to i32
  %105 = icmp eq i32 %104, -1
  br i1 %105, label %106, label %151

106:                                              ; preds = %102
  %107 = load i8, ptr %12, align 1
  %108 = sext i8 %107 to i32
  %109 = icmp ne i32 %108, 112
  br i1 %109, label %110, label %151

110:                                              ; preds = %106
  %111 = load ptr, ptr %14, align 8
  %112 = getelementptr inbounds nuw %struct.varattrib_1b, ptr %111, i32 0, i32 0
  %113 = load i8, ptr %112, align 1
  %114 = zext i8 %113 to i32
  %115 = and i32 %114, 3
  %116 = icmp eq i32 %115, 0
  br i1 %116, label %117, label %151

117:                                              ; preds = %110
  %118 = load ptr, ptr %14, align 8
  %119 = getelementptr inbounds nuw %struct.anon, ptr %118, i32 0, i32 0
  %120 = load i32, ptr %119, align 4
  %121 = lshr i32 %120, 2
  %122 = and i32 %121, 1073741823
  %123 = sub i32 %122, 4
  %124 = zext i32 %123 to i64
  %125 = add i64 %124, 1
  %126 = icmp ule i64 %125, 127
  br i1 %126, label %127, label %151

127:                                              ; preds = %117
  %128 = load ptr, ptr %14, align 8
  %129 = getelementptr inbounds nuw %struct.anon, ptr %128, i32 0, i32 0
  %130 = load i32, ptr %129, align 4
  %131 = lshr i32 %130, 2
  %132 = and i32 %131, 1073741823
  %133 = sub i32 %132, 4
  %134 = zext i32 %133 to i64
  %135 = add i64 %134, 1
  store i64 %135, ptr %13, align 8
  %136 = load i64, ptr %13, align 8
  %137 = trunc i64 %136 to i8
  %138 = zext i8 %137 to i32
  %139 = shl i32 %138, 1
  %140 = or i32 %139, 1
  %141 = trunc i32 %140 to i8
  %142 = load ptr, ptr %7, align 8
  %143 = getelementptr inbounds nuw %struct.varattrib_1b, ptr %142, i32 0, i32 0
  store i8 %141, ptr %143, align 1
  %144 = load ptr, ptr %7, align 8
  %145 = getelementptr inbounds i8, ptr %144, i64 1
  %146 = load ptr, ptr %14, align 8
  %147 = getelementptr inbounds nuw %struct.anon, ptr %146, i32 0, i32 1
  %148 = getelementptr inbounds [0 x i8], ptr %147, i64 0, i64 0
  %149 = load i64, ptr %13, align 8
  %150 = sub i64 %149, 1
  call void @llvm.memcpy.p0.p0.i64(ptr align 1 %145, ptr align 4 %148, i64 %150, i1 false)
  br label %197

151:                                              ; preds = %117, %110, %106, %102
  %152 = load i8, ptr %10, align 1
  %153 = sext i8 %152 to i32
  %154 = icmp eq i32 %153, 105
  br i1 %154, label %155, label %160

155:                                              ; preds = %151
  %156 = load ptr, ptr %7, align 8
  %157 = ptrtoint ptr %156 to i64
  %158 = add i64 %157, 3
  %159 = and i64 %158, -4
  br label %185

160:                                              ; preds = %151
  %161 = load i8, ptr %10, align 1
  %162 = sext i8 %161 to i32
  %163 = icmp eq i32 %162, 99
  br i1 %163, label %164, label %167

164:                                              ; preds = %160
  %165 = load ptr, ptr %7, align 8
  %166 = ptrtoint ptr %165 to i64
  br label %183

167:                                              ; preds = %160
  %168 = load i8, ptr %10, align 1
  %169 = sext i8 %168 to i32
  %170 = icmp eq i32 %169, 100
  br i1 %170, label %171, label %176

171:                                              ; preds = %167
  %172 = load ptr, ptr %7, align 8
  %173 = ptrtoint ptr %172 to i64
  %174 = add i64 %173, 7
  %175 = and i64 %174, -8
  br label %181

176:                                              ; preds = %167
  %177 = load ptr, ptr %7, align 8
  %178 = ptrtoint ptr %177 to i64
  %179 = add i64 %178, 1
  %180 = and i64 %179, -2
  br label %181

181:                                              ; preds = %176, %171
  %182 = phi i64 [ %175, %171 ], [ %180, %176 ]
  br label %183

183:                                              ; preds = %181, %164
  %184 = phi i64 [ %166, %164 ], [ %182, %181 ]
  br label %185

185:                                              ; preds = %183, %155
  %186 = phi i64 [ %159, %155 ], [ %184, %183 ]
  %187 = inttoptr i64 %186 to ptr
  store ptr %187, ptr %7, align 8
  %188 = load ptr, ptr %14, align 8
  %189 = getelementptr inbounds nuw %struct.anon, ptr %188, i32 0, i32 0
  %190 = load i32, ptr %189, align 4
  %191 = lshr i32 %190, 2
  %192 = and i32 %191, 1073741823
  %193 = zext i32 %192 to i64
  store i64 %193, ptr %13, align 8
  %194 = load ptr, ptr %7, align 8
  %195 = load ptr, ptr %14, align 8
  %196 = load i64, ptr %13, align 8
  call void @llvm.memcpy.p0.p0.i64(ptr align 1 %194, ptr align 1 %195, i64 %196, i1 false)
  br label %197

197:                                              ; preds = %185, %127
  br label %198

198:                                              ; preds = %197, %91
  br label %199

199:                                              ; preds = %198, %83
  call void @llvm.lifetime.end.p0(i64 8, ptr %14) #10
  br label %257

200:                                              ; preds = %61
  %201 = load i16, ptr %11, align 2
  %202 = sext i16 %201 to i32
  %203 = icmp eq i32 %202, -2
  br i1 %203, label %204, label %213

204:                                              ; preds = %200
  %205 = load i64, ptr %8, align 8
  %206 = call ptr @DatumGetCString(i64 noundef %205)
  %207 = call i64 @strlen(ptr noundef %206) #13
  %208 = add i64 %207, 1
  store i64 %208, ptr %13, align 8
  %209 = load ptr, ptr %7, align 8
  %210 = load i64, ptr %8, align 8
  %211 = call ptr @DatumGetPointer(i64 noundef %210)
  %212 = load i64, ptr %13, align 8
  call void @llvm.memcpy.p0.p0.i64(ptr align 1 %209, ptr align 1 %211, i64 %212, i1 false)
  br label %256

213:                                              ; preds = %200
  %214 = load i8, ptr %10, align 1
  %215 = sext i8 %214 to i32
  %216 = icmp eq i32 %215, 105
  br i1 %216, label %217, label %222

217:                                              ; preds = %213
  %218 = load ptr, ptr %7, align 8
  %219 = ptrtoint ptr %218 to i64
  %220 = add i64 %219, 3
  %221 = and i64 %220, -4
  br label %247

222:                                              ; preds = %213
  %223 = load i8, ptr %10, align 1
  %224 = sext i8 %223 to i32
  %225 = icmp eq i32 %224, 99
  br i1 %225, label %226, label %229

226:                                              ; preds = %222
  %227 = load ptr, ptr %7, align 8
  %228 = ptrtoint ptr %227 to i64
  br label %245

229:                                              ; preds = %222
  %230 = load i8, ptr %10, align 1
  %231 = sext i8 %230 to i32
  %232 = icmp eq i32 %231, 100
  br i1 %232, label %233, label %238

233:                                              ; preds = %229
  %234 = load ptr, ptr %7, align 8
  %235 = ptrtoint ptr %234 to i64
  %236 = add i64 %235, 7
  %237 = and i64 %236, -8
  br label %243

238:                                              ; preds = %229
  %239 = load ptr, ptr %7, align 8
  %240 = ptrtoint ptr %239 to i64
  %241 = add i64 %240, 1
  %242 = and i64 %241, -2
  br label %243

243:                                              ; preds = %238, %233
  %244 = phi i64 [ %237, %233 ], [ %242, %238 ]
  br label %245

245:                                              ; preds = %243, %226
  %246 = phi i64 [ %228, %226 ], [ %244, %243 ]
  br label %247

247:                                              ; preds = %245, %217
  %248 = phi i64 [ %221, %217 ], [ %246, %245 ]
  %249 = inttoptr i64 %248 to ptr
  store ptr %249, ptr %7, align 8
  %250 = load i16, ptr %11, align 2
  %251 = sext i16 %250 to i64
  store i64 %251, ptr %13, align 8
  %252 = load ptr, ptr %7, align 8
  %253 = load i64, ptr %8, align 8
  %254 = call ptr @DatumGetPointer(i64 noundef %253)
  %255 = load i64, ptr %13, align 8
  call void @llvm.memcpy.p0.p0.i64(ptr align 1 %252, ptr align 1 %254, i64 %255, i1 false)
  br label %256

256:                                              ; preds = %247, %204
  br label %257

257:                                              ; preds = %256, %199
  br label %258

258:                                              ; preds = %257, %52
  %259 = load i64, ptr %13, align 8
  %260 = load ptr, ptr %7, align 8
  %261 = getelementptr inbounds nuw i8, ptr %260, i64 %259
  store ptr %261, ptr %7, align 8
  %262 = load ptr, ptr %7, align 8
  call void @llvm.lifetime.end.p0(i64 8, ptr %13) #10
  ret ptr %262
}