; Function Attrs: nounwind uwtable
define internal fastcc ptr @datum_write(ptr noundef %0, i64 noundef %1, i1 noundef zeroext %2, i8 noundef signext %3, i16 noundef signext %4, i8 noundef signext %5) unnamed_addr #0 {
  br i1 %2, label %7, label %33

7:                                                ; preds = %6
  %8 = ptrtoint ptr %0 to i64
  switch i8 %3, label %15 [
    i8 105, label %9
    i8 99, label %18
    i8 100, label %12
  ]

9:                                                ; preds = %7
  %10 = add i64 %8, 3
  %11 = and i64 %10, -4
  br label %18

12:                                               ; preds = %7
  %13 = add i64 %8, 7
  %14 = and i64 %13, -8
  br label %18

15:                                               ; preds = %7
  %16 = add i64 %8, 1
  %17 = and i64 %16, -2
  br label %18

18:                                               ; preds = %7, %15, %12, %9
  %19 = phi i64 [ %11, %9 ], [ %14, %12 ], [ %17, %15 ], [ %8, %7 ]
  %20 = inttoptr i64 %19 to ptr
  switch i16 %4, label %28 [
    i16 1, label %21
    i16 2, label %23
    i16 4, label %25
    i16 8, label %27
  ]

21:                                               ; preds = %18
  %22 = trunc i64 %1 to i8
  store i8 %22, ptr %20, align 1
  br label %store_att_byval.exit

23:                                               ; preds = %18
  %24 = trunc i64 %1 to i16
  store i16 %24, ptr %20, align 2
  br label %store_att_byval.exit

25:                                               ; preds = %18
  %26 = trunc i64 %1 to i32
  store i32 %26, ptr %20, align 4
  br label %store_att_byval.exit

27:                                               ; preds = %18
  store i64 %1, ptr %20, align 8
  br label %store_att_byval.exit

28:                                               ; preds = %18
  %29 = sext i16 %4 to i32
  %30 = tail call zeroext i1 @errstart_cold(i32 noundef 21, ptr noundef null) #16
  tail call void @llvm.assume(i1 %30)
  %31 = tail call i32 (ptr, ...) @errmsg_internal(ptr noundef nonnull @.str.17, i32 noundef range(i32 -32768, 32768) %29) #14
  tail call void @errfinish(ptr noundef nonnull @.str.18, i32 noundef 230, ptr noundef nonnull @__func__.store_att_byval) #14
  unreachable

store_att_byval.exit:                             ; preds = %21, %23, %25, %27
  %32 = zext nneg i16 %4 to i64
  br label %100

33:                                               ; preds = %6
  switch i16 %4, label %84 [
    i16 -1, label %34
    i16 -2, label %80
  ]

34:                                               ; preds = %33
  %35 = inttoptr i64 %1 to ptr
  %36 = load i8, ptr %35, align 1
  %37 = zext i8 %36 to i32
  %38 = icmp eq i8 %36, 1
  br i1 %38, label %39, label %42

39:                                               ; preds = %34
  %40 = tail call zeroext i1 @errstart_cold(i32 noundef 21, ptr noundef null) #16
  tail call void @llvm.assume(i1 %40)
  %41 = tail call i32 (ptr, ...) @errmsg_internal(ptr noundef nonnull @.str.29) #14
  tail call void @errfinish(ptr noundef nonnull @.str.1, i32 noundef 2732, ptr noundef nonnull @__func__.datum_write) #14
  unreachable

42:                                               ; preds = %34
  %43 = and i32 %37, 1
  %.not = icmp eq i32 %43, 0
  br i1 %.not, label %47, label %44

44:                                               ; preds = %42
  %45 = lshr i32 %37, 1
  %46 = zext nneg i32 %45 to i64
  tail call void @llvm.memcpy.p0.p0.i64(ptr align 1 %0, ptr nonnull align 1 %35, i64 %46, i1 false)
  br label %100

47:                                               ; preds = %42
  %.not69 = icmp ne i8 %5, 112
  %48 = and i32 %37, 2
  %49 = icmp eq i32 %48, 0
  %or.cond = and i1 %.not69, %49
  br i1 %or.cond, label %50, label %63

50:                                               ; preds = %47
  %51 = load i32, ptr %35, align 4
  %52 = lshr i32 %51, 2
  %53 = add nsw i32 %52, -4
  %54 = icmp ult i32 %53, 127
  br i1 %54, label %55, label %63

55:                                               ; preds = %50
  %56 = zext nneg i32 %53 to i64
  %57 = add nuw nsw i64 %56, 1
  %58 = trunc nuw i64 %57 to i8
  %59 = shl nuw i8 %58, 1
  %60 = or disjoint i8 %59, 1
  store i8 %60, ptr %0, align 1
  %61 = getelementptr inbounds nuw i8, ptr %0, i64 1
  %62 = getelementptr inbounds nuw i8, ptr %35, i64 4
  tail call void @llvm.memcpy.p0.p0.i64(ptr nonnull align 1 %61, ptr nonnull align 4 %62, i64 %56, i1 false)
  br label %100

63:                                               ; preds = %50, %47
  %64 = ptrtoint ptr %0 to i64
  switch i8 %3, label %71 [
    i8 105, label %65
    i8 99, label %74
    i8 100, label %68
  ]

65:                                               ; preds = %63
  %66 = add i64 %64, 3
  %67 = and i64 %66, -4
  br label %74

68:                                               ; preds = %63
  %69 = add i64 %64, 7
  %70 = and i64 %69, -8
  br label %74

71:                                               ; preds = %63
  %72 = add i64 %64, 1
  %73 = and i64 %72, -2
  br label %74

74:                                               ; preds = %63, %71, %68, %65
  %75 = phi i64 [ %67, %65 ], [ %70, %68 ], [ %73, %71 ], [ %64, %63 ]
  %76 = inttoptr i64 %75 to ptr
  %77 = load i32, ptr %35, align 4
  %78 = lshr i32 %77, 2
  %79 = zext nneg i32 %78 to i64
  tail call void @llvm.memcpy.p0.p0.i64(ptr align 1 %76, ptr nonnull align 1 %35, i64 %79, i1 false)
  br label %100

80:                                               ; preds = %33
  %81 = inttoptr i64 %1 to ptr
  %82 = tail call i64 @strlen(ptr noundef nonnull dereferenceable(1) %81) #17
  %83 = add i64 %82, 1
  tail call void @llvm.memcpy.p0.p0.i64(ptr align 1 %0, ptr nonnull align 1 %81, i64 %83, i1 false)
  br label %100

84:                                               ; preds = %33
  %85 = ptrtoint ptr %0 to i64
  switch i8 %3, label %92 [
    i8 105, label %86
    i8 99, label %95
    i8 100, label %89
  ]

86:                                               ; preds = %84
  %87 = add i64 %85, 3
  %88 = and i64 %87, -4
  br label %95

89:                                               ; preds = %84
  %90 = add i64 %85, 7
  %91 = and i64 %90, -8
  br label %95

92:                                               ; preds = %84
  %93 = add i64 %85, 1
  %94 = and i64 %93, -2
  br label %95

95:                                               ; preds = %84, %92, %89, %86
  %96 = phi i64 [ %88, %86 ], [ %91, %89 ], [ %94, %92 ], [ %85, %84 ]
  %97 = inttoptr i64 %96 to ptr
  %98 = sext i16 %4 to i64
  %99 = inttoptr i64 %1 to ptr
  tail call void @llvm.memcpy.p0.p0.i64(ptr align 1 %97, ptr align 1 %99, i64 %98, i1 false)
  br label %100

100:                                              ; preds = %55, %74, %44, %95, %80, %store_att_byval.exit
  %.061 = phi i64 [ %32, %store_att_byval.exit ], [ %83, %80 ], [ %98, %95 ], [ %46, %44 ], [ %57, %55 ], [ %79, %74 ]
  %.0 = phi ptr [ %20, %store_att_byval.exit ], [ %0, %80 ], [ %97, %95 ], [ %0, %44 ], [ %0, %55 ], [ %76, %74 ]
  %101 = getelementptr inbounds nuw i8, ptr %.0, i64 %.061
  ret ptr %101
}